ccopy_reg
_reconstructor
p0
(ceasydict
EasyDict
p1
c__builtin__
dict
p2
(dp3
S'0017'
p4
S'raw/0065'
p5
sS'0016'
p6
S'raw/0064'
p7
sS'0015'
p8
S'raw/0016'
p9
sS'0014'
p10
S'raw/0015'
p11
sS'0013'
p12
S'raw/0014'
p13
sS'0012'
p14
S'raw/0013'
p15
sS'0011'
p16
S'raw/0012'
p17
sS'0010'
p18
S'raw/0011'
p19
sS'0031'
p20
(lp21
S'raw/0013'
p22
aI01
asS'0020'
p23
S'raw/0068'
p24
sS'0019'
p25
S'raw/0067'
p26
sS'0018'
p27
S'raw/0066'
p28
sS'0021'
p29
S'raw/0069'
p30
sS'0000'
p31
S'raw/0001'
p32
sS'0027'
p33
S'raw/0075'
p34
sS'0002'
p35
S'raw/0003'
p36
sS'0003'
p37
S'raw/0004'
p38
sS'0004'
p39
S'raw/0005'
p40
sS'0022'
p41
S'raw/0070'
p42
sS'0023'
p43
S'raw/0071'
p44
sS'0006'
p45
S'raw/0007'
p46
sS'0007'
p47
S'raw/0008'
p48
sS'0026'
p49
S'raw/0074'
p50
sS'0001'
p51
S'raw/0002'
p52
sS'0024'
p53
S'raw/0072'
p54
sS'0025'
p55
S'raw/0073'
p56
sS'0028'
p57
S'raw/0076'
p58
sS'0029'
p59
S'raw/0077'
p60
sS'0008'
p61
S'raw/0009'
p62
sS'0009'
p63
S'raw/0010'
p64
sS'0005'
p65
S'raw/0006'
p66
sS'0030'
p67
(lp68
S'raw/0011'
p69
aI01
astp70
Rp71
(dp72
S'0017'
p73
g5
sS'0016'
p74
g7
sS'0015'
p75
g9
sS'0014'
p76
g11
sS'0013'
p77
g13
sS'0012'
p78
g15
sS'0011'
p79
g17
sS'0010'
p80
g19
sg20
g21
sS'0020'
p81
g24
sS'0019'
p82
g26
sS'0018'
p83
g28
sS'0021'
p84
g30
sS'0026'
p85
g50
sS'0027'
p86
g34
sS'0002'
p87
g36
sS'0025'
p88
g56
sS'0004'
p89
g40
sS'0005'
p90
g66
sS'0006'
p91
g46
sS'0007'
p92
g48
sS'0000'
p93
g32
sS'0001'
p94
g52
sS'0024'
p95
g54
sS'0003'
p96
g38
sS'0028'
p97
g58
sS'0029'
p98
g60
sS'0008'
p99
g62
sS'0009'
p100
g64
sS'0030'
p101
g68
sS'0022'
p102
g42
sS'0023'
p103
g44
sb.