ccopy_reg
_reconstructor
p0
(ceasydict
EasyDict
p1
c__builtin__
dict
p2
(dp3
S'0004'
p4
S'raw/0005'
p5
sS'0005'
p6
S'raw/0006'
p7
sS'0006'
p8
S'raw/0007'
p9
sS'0007'
p10
S'raw/0008'
p11
sS'0000'
p12
S'raw/0001'
p13
sS'0001'
p14
S'raw/0002'
p15
sS'0002'
p16
S'raw/0003'
p17
sS'0003'
p18
S'raw/0004'
p19
stp20
Rp21
(dp22
S'0004'
p23
g5
sS'0005'
p24
g7
sS'0006'
p25
g9
sg10
g11
sS'0000'
p26
g13
sS'0001'
p27
g15
sS'0002'
p28
g17
sS'0003'
p29
g19
sb.