ccopy_reg
_reconstructor
p0
(ceasydict
EasyDict
p1
c__builtin__
dict
p2
(dp3
S'0004'
p4
S'raw/0005'
p5
sS'0000'
p6
S'raw/0001'
p7
sS'0001'
p8
S'raw/0002'
p9
sS'0002'
p10
S'raw/0003'
p11
sS'0003'
p12
S'raw/0004'
p13
stp14
Rp15
(dp16
g4
g5
sS'0000'
p17
g7
sS'0001'
p18
g9
sS'0002'
p19
g11
sS'0003'
p20
g13
sb.