ccopy_reg
_reconstructor
p0
(ceasydict
EasyDict
p1
c__builtin__
dict
p2
(dp3
S'0017'
p4
S'raw/0065'
p5
sS'0016'
p6
S'raw/0064'
p7
sS'0015'
p8
S'raw/0016'
p9
sS'0014'
p10
S'raw/0015'
p11
sS'0013'
p12
S'raw/0014'
p13
sS'0012'
p14
S'raw/0013'
p15
sS'0011'
p16
S'raw/0012'
p17
sS'0010'
p18
S'raw/0011'
p19
sS'0031'
p20
(lp21
S'raw/0013'
p22
aI01
asS'0006'
p23
S'raw/0007'
p24
sS'0019'
p25
S'raw/0067'
p26
sS'0018'
p27
S'raw/0066'
p28
sS'0007'
p29
S'raw/0008'
p30
sS'0026'
p31
S'raw/0074'
p32
sS'0001'
p33
S'raw/0002'
p34
sS'0024'
p35
S'raw/0072'
p36
sS'0025'
p37
S'raw/0073'
p38
sS'0004'
p39
S'raw/0005'
p40
sS'0023'
p41
S'raw/0071'
p42
sS'0020'
p43
S'raw/0068'
p44
sS'0021'
p45
S'raw/0069'
p46
sS'0000'
p47
S'raw/0001'
p48
sS'0027'
p49
S'raw/0075'
p50
sS'0002'
p51
S'raw/0003'
p52
sS'0003'
p53
S'raw/0004'
p54
sS'0028'
p55
S'raw/0076'
p56
sS'0029'
p57
S'raw/0077'
p58
sS'0008'
p59
S'raw/0009'
p60
sS'0009'
p61
S'raw/0010'
p62
sS'0005'
p63
S'raw/0006'
p64
sS'0030'
p65
(lp66
S'raw/0011'
p67
aI01
asS'0022'
p68
S'raw/0070'
p69
sS'0032'
p70
S'raw/0000'
p71
stp72
Rp73
(dp74
S'0017'
p75
g5
sS'0016'
p76
g7
sS'0015'
p77
g9
sS'0014'
p78
g11
sS'0013'
p79
g13
sS'0012'
p80
g15
sS'0011'
p81
g17
sS'0010'
p82
g19
sg20
g21
sS'0020'
p83
g44
sS'0019'
p84
g26
sS'0018'
p85
g28
sS'0021'
p86
g46
sS'0026'
p87
g32
sS'0027'
p88
g50
sS'0002'
p89
g52
sS'0025'
p90
g38
sS'0004'
p91
g40
sS'0005'
p92
g64
sS'0006'
p93
g24
sS'0007'
p94
g30
sS'0000'
p95
g48
sS'0001'
p96
g34
sS'0024'
p97
g36
sS'0003'
p98
g54
sS'0028'
p99
g56
sS'0029'
p100
g58
sS'0008'
p101
g60
sS'0009'
p102
g62
sS'0030'
p103
g66
sS'0022'
p104
g69
sg70
g71
sS'0023'
p105
g42
sb.