ccopy_reg
_reconstructor
p0
(ceasydict
EasyDict
p1
c__builtin__
dict
p2
(dp3
S'0000'
p4
S'raw/0001'
p5
sS'0001'
p6
S'raw/0002'
p7
sS'0002'
p8
S'raw/0003'
p9
sS'0003'
p10
S'raw/0004'
p11
stp12
Rp13
(dp14
S'0000'
p15
g5
sS'0001'
p16
g7
sS'0002'
p17
g9
sg10
g11
sb.