ccopy_reg
_reconstructor
p0
(ceasydict
EasyDict
p1
c__builtin__
dict
p2
(dp3
S'0017'
p4
S'raw/0065'
p5
sS'0016'
p6
S'raw/0064'
p7
sS'0015'
p8
S'raw/0016'
p9
sS'0014'
p10
S'raw/0015'
p11
sS'0013'
p12
S'raw/0014'
p13
sS'0012'
p14
S'raw/0013'
p15
sS'0011'
p16
S'raw/0012'
p17
sS'0010'
p18
S'raw/0011'
p19
sS'0028'
p20
S'raw/0076'
p21
sS'0029'
p22
S'raw/0077'
p23
sS'0008'
p24
S'raw/0009'
p25
sS'0006'
p26
S'raw/0007'
p27
sS'0019'
p28
S'raw/0067'
p29
sS'0018'
p30
S'raw/0066'
p31
sS'0020'
p32
S'raw/0068'
p33
sS'0007'
p34
S'raw/0008'
p35
sS'0022'
p36
S'raw/0070'
p37
sS'0026'
p38
S'raw/0074'
p39
sS'0001'
p40
S'raw/0002'
p41
sS'0002'
p42
S'raw/0003'
p43
sS'0024'
p44
S'raw/0072'
p45
sS'0000'
p46
S'raw/0001'
p47
sS'0027'
p48
S'raw/0075'
p49
sS'0025'
p50
S'raw/0073'
p51
sS'0021'
p52
S'raw/0069'
p53
sS'0004'
p54
S'raw/0005'
p55
sS'0023'
p56
S'raw/0071'
p57
sS'0005'
p58
S'raw/0006'
p59
sS'0009'
p60
S'raw/0010'
p61
sS'0003'
p62
S'raw/0004'
p63
stp64
Rp65
(dp66
S'0017'
p67
g5
sS'0016'
p68
g7
sS'0015'
p69
g9
sS'0014'
p70
g11
sS'0013'
p71
g13
sS'0012'
p72
g15
sS'0011'
p73
g17
sS'0010'
p74
g19
sS'0020'
p75
g33
sS'0019'
p76
g29
sS'0018'
p77
g31
sS'0021'
p78
g53
sS'0026'
p79
g39
sS'0027'
p80
g49
sS'0002'
p81
g43
sS'0025'
p82
g51
sS'0004'
p83
g55
sS'0005'
p84
g59
sS'0006'
p85
g27
sS'0007'
p86
g35
sS'0000'
p87
g47
sS'0001'
p88
g41
sS'0024'
p89
g45
sS'0003'
p90
g63
sS'0028'
p91
g21
sg22
g23
sS'0008'
p92
g25
sS'0009'
p93
g61
sS'0022'
p94
g37
sS'0023'
p95
g57
sb.